target datalayout = "e-m:e-p270:32:32-p271:32:32-p272:64:64-i64:64-i128:128-f80:128-n8:16:32:64-S128"
target triple = "x86_64-pc-linux-gnu"

%struct.FFFrameSync = type { ptr, ptr, i32, %struct.AVRational, i64, ptr, ptr, i32, i32, i8, i8, ptr, i32, i32, i32, i32 }
%struct.AVRational = type { i32, i32 }
%struct.AVFilterContext = type { ptr, ptr, ptr, ptr, ptr, i32, ptr, ptr, i32, ptr, ptr, i32, i32, ptr, ptr, ptr, ptr, i32, ptr, i32, i32 }
%struct.FFFrameSyncIn = type { i32, i32, %struct.AVRational, ptr, ptr, i64, i64, i8, i8, i32, i32 }

@.str.1 = private unnamed_addr constant [30 x i8] c"Assertion %s failed at %s:%d\0A\00", align 1
@.str.3 = private unnamed_addr constant [24 x i8] c"libavfilter/framesync.c\00", align 1
@.str.26 = private unnamed_addr constant [24 x i8] c"level <= fs->sync_level\00", align 1
@.str.27 = private unnamed_addr constant [15 x i8] c"Sync level %u\0A\00", align 1

; Function Attrs: inlinehint nounwind uwtable
define internal void @ff_outlink_set_status(ptr noundef %0, i32 noundef %1, i64 noundef %2) #6 {
  %4 = alloca ptr, align 8
  %5 = alloca i32, align 4
  %6 = alloca i64, align 8
  store ptr %0, ptr %4, align 8, !tbaa !71
  store i32 %1, ptr %5, align 4, !tbaa !22
  store i64 %2, ptr %6, align 8, !tbaa !56
  %7 = load ptr, ptr %4, align 8, !tbaa !71
  %8 = load i32, ptr %5, align 4, !tbaa !22
  %9 = load i64, ptr %6, align 8, !tbaa !56
  call void @ff_avfilter_link_set_in_status(ptr noundef %7, i32 noundef %8, i64 noundef %9)
  ret void
}

; Function Attrs: nounwind uwtable
define internal void @framesync_eof(ptr noundef %0, i64 noundef %1) #0 {
  %3 = alloca ptr, align 8
  %4 = alloca i64, align 8
  store ptr %0, ptr %3, align 8, !tbaa !12
  store i64 %1, ptr %4, align 8, !tbaa !56
  %5 = load ptr, ptr %3, align 8, !tbaa !12
  %6 = getelementptr inbounds nuw %struct.FFFrameSync, ptr %5, i32 0, i32 10
  store i8 1, ptr %6, align 1, !tbaa !76
  %7 = load ptr, ptr %3, align 8, !tbaa !12
  %8 = getelementptr inbounds nuw %struct.FFFrameSync, ptr %7, i32 0, i32 9
  store i8 0, ptr %8, align 8, !tbaa !68
  %9 = load ptr, ptr %3, align 8, !tbaa !12
  %10 = getelementptr inbounds nuw %struct.FFFrameSync, ptr %9, i32 0, i32 1
  %11 = load ptr, ptr %10, align 8, !tbaa !33
  %12 = getelementptr inbounds nuw %struct.AVFilterContext, ptr %11, i32 0, i32 7
  %13 = load ptr, ptr %12, align 8, !tbaa !70
  %14 = getelementptr inbounds ptr, ptr %13, i64 0
  %15 = load ptr, ptr %14, align 8, !tbaa !71
  %16 = load i64, ptr %4, align 8, !tbaa !56
  call void @ff_outlink_set_status(ptr noundef %15, i32 noundef -541478725, i64 noundef %16)
  ret void
}

; Function Attrs: nounwind uwtable
define internal void @framesync_sync_level_update(ptr noundef %0, i64 noundef %1) #0 {
  %3 = alloca ptr, align 8
  %4 = alloca i64, align 8
  %5 = alloca i32, align 4
  %6 = alloca i32, align 4
  store ptr %0, ptr %3, align 8, !tbaa !12
  store i64 %1, ptr %4, align 8, !tbaa !56
  call void @llvm.lifetime.start.p0(i64 4, ptr %5) #7
  call void @llvm.lifetime.start.p0(i64 4, ptr %6) #7
  store i32 0, ptr %6, align 4, !tbaa !22
  store i32 0, ptr %5, align 4, !tbaa !22
  br label %7

7:                                                ; preds = %49, %2
  %8 = load i32, ptr %5, align 4, !tbaa !22
  %9 = load ptr, ptr %3, align 8, !tbaa !12
  %10 = getelementptr inbounds nuw %struct.FFFrameSync, ptr %9, i32 0, i32 2
  %11 = load i32, ptr %10, align 8, !tbaa !34
  %12 = icmp ult i32 %8, %11
  br i1 %12, label %13, label %52

13:                                               ; preds = %7
  %14 = load ptr, ptr %3, align 8, !tbaa !12
  %15 = getelementptr inbounds nuw %struct.FFFrameSync, ptr %14, i32 0, i32 11
  %16 = load ptr, ptr %15, align 8, !tbaa !35
  %17 = load i32, ptr %5, align 4, !tbaa !22
  %18 = zext i32 %17 to i64
  %19 = getelementptr inbounds nuw %struct.FFFrameSyncIn, ptr %16, i64 %18
  %20 = getelementptr inbounds nuw %struct.FFFrameSyncIn, ptr %19, i32 0, i32 8
  %21 = load i8, ptr %20, align 1, !tbaa !57
  %22 = zext i8 %21 to i32
  %23 = icmp ne i32 %22, 2
  br i1 %23, label %24, label %48

24:                                               ; preds = %13
  %25 = load i32, ptr %6, align 4, !tbaa !22
  %26 = load ptr, ptr %3, align 8, !tbaa !12
  %27 = getelementptr inbounds nuw %struct.FFFrameSync, ptr %26, i32 0, i32 11
  %28 = load ptr, ptr %27, align 8, !tbaa !35
  %29 = load i32, ptr %5, align 4, !tbaa !22
  %30 = zext i32 %29 to i64
  %31 = getelementptr inbounds nuw %struct.FFFrameSyncIn, ptr %28, i64 %30
  %32 = getelementptr inbounds nuw %struct.FFFrameSyncIn, ptr %31, i32 0, i32 9
  %33 = load i32, ptr %32, align 4, !tbaa !42
  %34 = icmp ugt i32 %25, %33
  br i1 %34, label %35, label %37

35:                                               ; preds = %24
  %36 = load i32, ptr %6, align 4, !tbaa !22
  br label %46

37:                                               ; preds = %24
  %38 = load ptr, ptr %3, align 8, !tbaa !12
  %39 = getelementptr inbounds nuw %struct.FFFrameSync, ptr %38, i32 0, i32 11
  %40 = load ptr, ptr %39, align 8, !tbaa !35
  %41 = load i32, ptr %5, align 4, !tbaa !22
  %42 = zext i32 %41 to i64
  %43 = getelementptr inbounds nuw %struct.FFFrameSyncIn, ptr %40, i64 %42
  %44 = getelementptr inbounds nuw %struct.FFFrameSyncIn, ptr %43, i32 0, i32 9
  %45 = load i32, ptr %44, align 4, !tbaa !42
  br label %46

46:                                               ; preds = %37, %35
  %47 = phi i32 [ %36, %35 ], [ %45, %37 ]
  store i32 %47, ptr %6, align 4, !tbaa !22
  br label %48

48:                                               ; preds = %46, %13
  br label %49

49:                                               ; preds = %48
  %50 = load i32, ptr %5, align 4, !tbaa !22
  %51 = add i32 %50, 1
  store i32 %51, ptr %5, align 4, !tbaa !22
  br label %7, !llvm.loop !58

52:                                               ; preds = %7
  br label %53

53:                                               ; preds = %52
  %54 = load i32, ptr %6, align 4, !tbaa !22
  %55 = load ptr, ptr %3, align 8, !tbaa !12
  %56 = getelementptr inbounds nuw %struct.FFFrameSync, ptr %55, i32 0, i32 8
  %57 = load i32, ptr %56, align 4, !tbaa !55
  %58 = icmp ule i32 %54, %57
  br i1 %58, label %60, label %59

59:                                               ; preds = %53
  call void (ptr, i32, ptr, ...) @av_log(ptr noundef null, i32 noundef 0, ptr noundef @.str.1, ptr noundef @.str.26, ptr noundef @.str.3, i32 noundef 120)
  call void @abort() #8
  unreachable

60:                                               ; preds = %53
  br label %61

61:                                               ; preds = %60
  br label %62

62:                                               ; preds = %61
  %63 = load i32, ptr %6, align 4, !tbaa !22
  %64 = load ptr, ptr %3, align 8, !tbaa !12
  %65 = getelementptr inbounds nuw %struct.FFFrameSync, ptr %64, i32 0, i32 8
  %66 = load i32, ptr %65, align 4, !tbaa !55
  %67 = icmp ult i32 %63, %66
  br i1 %67, label %68, label %71

68:                                               ; preds = %62
  %69 = load ptr, ptr %3, align 8, !tbaa !12
  %70 = load i32, ptr %6, align 4, !tbaa !22
  call void (ptr, i32, ptr, ...) @av_log(ptr noundef %69, i32 noundef 40, ptr noundef @.str.27, i32 noundef %70)
  br label %71

71:                                               ; preds = %68, %62
  %72 = load ptr, ptr %3, align 8, !tbaa !12
  %73 = getelementptr inbounds nuw %struct.FFFrameSync, ptr %72, i32 0, i32 15
  %74 = load i32, ptr %73, align 4, !tbaa !59
  %75 = icmp sgt i32 %74, 0
  br i1 %75, label %76, label %118

76:                                               ; preds = %71
  store i32 0, ptr %5, align 4, !tbaa !22
  br label %77

77:                                               ; preds = %114, %76
  %78 = load i32, ptr %5, align 4, !tbaa !22
  %79 = load ptr, ptr %3, align 8, !tbaa !12
  %80 = getelementptr inbounds nuw %struct.FFFrameSync, ptr %79, i32 0, i32 2
  %81 = load i32, ptr %80, align 8, !tbaa !34
  %82 = icmp ult i32 %78, %81
  br i1 %82, label %83, label %117

83:                                               ; preds = %77
  %84 = load ptr, ptr %3, align 8, !tbaa !12
  %85 = getelementptr inbounds nuw %struct.FFFrameSync, ptr %84, i32 0, i32 11
  %86 = load ptr, ptr %85, align 8, !tbaa !35
  %87 = load i32, ptr %5, align 4, !tbaa !22
  %88 = zext i32 %87 to i64
  %89 = getelementptr inbounds nuw %struct.FFFrameSyncIn, ptr %86, i64 %88
  %90 = getelementptr inbounds nuw %struct.FFFrameSyncIn, ptr %89, i32 0, i32 9
  %91 = load i32, ptr %90, align 4, !tbaa !42
  %92 = load i32, ptr %6, align 4, !tbaa !22
  %93 = icmp ult i32 %91, %92
  br i1 %93, label %94, label %105

94:                                               ; preds = %83
  %95 = load ptr, ptr %3, align 8, !tbaa !12
  %96 = getelementptr inbounds nuw %struct.FFFrameSync, ptr %95, i32 0, i32 15
  %97 = load i32, ptr %96, align 4, !tbaa !59
  %98 = load ptr, ptr %3, align 8, !tbaa !12
  %99 = getelementptr inbounds nuw %struct.FFFrameSync, ptr %98, i32 0, i32 11
  %100 = load ptr, ptr %99, align 8, !tbaa !35
  %101 = load i32, ptr %5, align 4, !tbaa !22
  %102 = zext i32 %101 to i64
  %103 = getelementptr inbounds nuw %struct.FFFrameSyncIn, ptr %100, i64 %102
  %104 = getelementptr inbounds nuw %struct.FFFrameSyncIn, ptr %103, i32 0, i32 10
  store i32 %97, ptr %104, align 8, !tbaa !60
  br label %113

105:                                              ; preds = %83
  %106 = load ptr, ptr %3, align 8, !tbaa !12
  %107 = getelementptr inbounds nuw %struct.FFFrameSync, ptr %106, i32 0, i32 11
  %108 = load ptr, ptr %107, align 8, !tbaa !35
  %109 = load i32, ptr %5, align 4, !tbaa !22
  %110 = zext i32 %109 to i64
  %111 = getelementptr inbounds nuw %struct.FFFrameSyncIn, ptr %108, i64 %110
  %112 = getelementptr inbounds nuw %struct.FFFrameSyncIn, ptr %111, i32 0, i32 10
  store i32 0, ptr %112, align 8, !tbaa !60
  br label %113

113:                                              ; preds = %105, %94
  br label %114

114:                                              ; preds = %113
  %115 = load i32, ptr %5, align 4, !tbaa !22
  %116 = add i32 %115, 1
  store i32 %116, ptr %5, align 4, !tbaa !22
  br label %77, !llvm.loop !61

117:                                              ; preds = %77
  br label %118

118:                                              ; preds = %117, %71
  %119 = load i32, ptr %6, align 4, !tbaa !22
  %120 = icmp ne i32 %119, 0
  br i1 %120, label %121, label %125

121:                                              ; preds = %118
  %122 = load i32, ptr %6, align 4, !tbaa !22
  %123 = load ptr, ptr %3, align 8, !tbaa !12
  %124 = getelementptr inbounds nuw %struct.FFFrameSync, ptr %123, i32 0, i32 8
  store i32 %122, ptr %124, align 4, !tbaa !55
  br label %128

125:                                              ; preds = %118
  %126 = load ptr, ptr %3, align 8, !tbaa !12
  %127 = load i64, ptr %4, align 8, !tbaa !56
  call void @framesync_eof(ptr noundef %126, i64 noundef %127)
  br label %128

128:                                              ; preds = %125, %121
  call void @llvm.lifetime.end.p0(i64 4, ptr %6) #7
  call void @llvm.lifetime.end.p0(i64 4, ptr %5) #7
  ret void
}