; Function Attrs: nounwind uwtable
define internal fastcc void @framesync_sync_level_update(ptr noundef %0, i64 noundef %1) unnamed_addr #3 {
  %3 = getelementptr inbounds nuw i8, ptr %0, i64 16
  %4 = load i32, ptr %3, align 8, !tbaa !28
  %.not43 = icmp eq i32 %4, 0
  br i1 %.not43, label %._crit_edge.thread, label %.lr.ph

._crit_edge.thread:                               ; preds = %2
  %5 = getelementptr inbounds nuw i8, ptr %0, i64 60
  %6 = load i32, ptr %5, align 4, !tbaa !46
  br label %20

.lr.ph:                                           ; preds = %2
  %7 = getelementptr inbounds nuw i8, ptr %0, i64 72
  %8 = load ptr, ptr %7, align 8, !tbaa !29
  %wide.trip.count = zext i32 %4 to i64
  br label %9

9:                                                ; preds = %.lr.ph, %16
  %indvars.iv = phi i64 [ 0, %.lr.ph ], [ %indvars.iv.next, %16 ]
  %.040 = phi i32 [ 0, %.lr.ph ], [ %.1, %16 ]
  %10 = getelementptr inbounds nuw %struct.FFFrameSyncIn, ptr %8, i64 %indvars.iv
  %11 = getelementptr inbounds nuw i8, ptr %10, i64 49
  %12 = load i8, ptr %11, align 1, !tbaa !47
  %.not38 = icmp eq i8 %12, 2
  br i1 %.not38, label %16, label %13

13:                                               ; preds = %9
  %14 = getelementptr inbounds nuw i8, ptr %10, i64 52
  %15 = load i32, ptr %14, align 4, !tbaa !36
  %.0. = tail call i32 @llvm.umax.i32(i32 %.040, i32 %15)
  br label %16

16:                                               ; preds = %9, %13
  %.1 = phi i32 [ %.0., %13 ], [ %.040, %9 ]
  %indvars.iv.next = add nuw nsw i64 %indvars.iv, 1
  %exitcond.not = icmp eq i64 %indvars.iv.next, %wide.trip.count
  br i1 %exitcond.not, label %._crit_edge, label %9, !llvm.loop !48

._crit_edge:                                      ; preds = %16
  %17 = getelementptr inbounds nuw i8, ptr %0, i64 60
  %18 = load i32, ptr %17, align 4, !tbaa !46
  %.not = icmp ugt i32 %.1, %18
  br i1 %.not, label %19, label %20

19:                                               ; preds = %._crit_edge
  tail call void (ptr, i32, ptr, ...) @av_log(ptr noundef null, i32 noundef 0, ptr noundef nonnull @.str.1, ptr noundef nonnull @.str.26, ptr noundef nonnull @.str.3, i32 noundef 120) #8
  tail call void @abort() #9
  unreachable

20:                                               ; preds = %._crit_edge.thread, %._crit_edge
  %21 = phi i32 [ %6, %._crit_edge.thread ], [ %18, %._crit_edge ]
  %22 = phi ptr [ %5, %._crit_edge.thread ], [ %17, %._crit_edge ]
  %.0.lcssa53 = phi i32 [ 0, %._crit_edge.thread ], [ %.1, %._crit_edge ]
  %23 = icmp ult i32 %.0.lcssa53, %21
  br i1 %23, label %24, label %25

24:                                               ; preds = %20
  tail call void (ptr, i32, ptr, ...) @av_log(ptr noundef nonnull %0, i32 noundef 40, ptr noundef nonnull @.str.27, i32 noundef %.0.lcssa53) #8
  br label %25

25:                                               ; preds = %24, %20
  %26 = getelementptr inbounds nuw i8, ptr %0, i64 92
  %27 = load i32, ptr %26, align 4, !tbaa !49
  %28 = icmp sgt i32 %27, 0
  br i1 %28, label %.preheader, label %.loopexit

.preheader:                                       ; preds = %25
  %29 = load i32, ptr %3, align 8, !tbaa !28
  %.not44 = icmp eq i32 %29, 0
  br i1 %.not44, label %.loopexit, label %.lr.ph42

.lr.ph42:                                         ; preds = %.preheader
  %30 = getelementptr inbounds nuw i8, ptr %0, i64 72
  %31 = load ptr, ptr %30, align 8, !tbaa !29
  %wide.trip.count49 = zext i32 %29 to i64
  br label %32

32:                                               ; preds = %.lr.ph42, %32
  %indvars.iv46 = phi i64 [ 0, %.lr.ph42 ], [ %indvars.iv.next47, %32 ]
  %33 = getelementptr inbounds nuw %struct.FFFrameSyncIn, ptr %31, i64 %indvars.iv46
  %34 = getelementptr inbounds nuw i8, ptr %33, i64 52
  %35 = load i32, ptr %34, align 4, !tbaa !36
  %36 = icmp ult i32 %35, %.0.lcssa53
  %spec.select = select i1 %36, i32 %27, i32 0
  %37 = getelementptr inbounds nuw i8, ptr %33, i64 56
  store i32 %spec.select, ptr %37, align 8, !tbaa !50
  %indvars.iv.next47 = add nuw nsw i64 %indvars.iv46, 1
  %exitcond50.not = icmp eq i64 %indvars.iv.next47, %wide.trip.count49
  br i1 %exitcond50.not, label %.loopexit, label %32, !llvm.loop !51

.loopexit:                                        ; preds = %32, %.preheader, %25
  %.not37 = icmp eq i32 %.0.lcssa53, 0
  br i1 %.not37, label %39, label %38

38:                                               ; preds = %.loopexit
  store i32 %.0.lcssa53, ptr %22, align 4, !tbaa !46
  br label %47

39:                                               ; preds = %.loopexit
  %40 = getelementptr inbounds nuw i8, ptr %0, i64 65
  store i8 1, ptr %40, align 1, !tbaa !52
  %41 = getelementptr inbounds nuw i8, ptr %0, i64 64
  store i8 0, ptr %41, align 8, !tbaa !53
  %42 = getelementptr inbounds nuw i8, ptr %0, i64 8
  %43 = load ptr, ptr %42, align 8, !tbaa !27
  %44 = getelementptr inbounds nuw i8, ptr %43, i64 56
  %45 = load ptr, ptr %44, align 8, !tbaa !54
  %46 = load ptr, ptr %45, align 8, !tbaa !55
  tail call void @ff_avfilter_link_set_in_status(ptr noundef %46, i32 noundef -541478725, i64 noundef %1) #8
  br label %47

47:                                               ; preds = %39, %38
  ret void
}